	.file	"rd_6301.cc"
	.text
	.section	.text._ZSt14isgreaterequaldd,"axG",@progbits,_ZSt14isgreaterequaldd,comdat
	.weak	_ZSt14isgreaterequaldd
	.type	_ZSt14isgreaterequaldd, @function
_ZSt14isgreaterequaldd:
.LFB125:
	.cfi_startproc
	pushq	%rbp
	.cfi_def_cfa_offset 16
	.cfi_offset 6, -16
	movq	%rsp, %rbp
	.cfi_def_cfa_register 6
	movsd	%xmm0, -8(%rbp)
	movsd	%xmm1, -16(%rbp)
	movsd	-8(%rbp), %xmm0
	ucomisd	-16(%rbp), %xmm0
	setb	%al
	xorl	$1, %eax
	movzbl	%al, %eax
	testl	%eax, %eax
	setne	%al
	popq	%rbp
	.cfi_def_cfa 7, 8
	ret
	.cfi_endproc
.LFE125:
	.size	_ZSt14isgreaterequaldd, .-_ZSt14isgreaterequaldd
	.section	.text._ZSt6islessdd,"axG",@progbits,_ZSt6islessdd,comdat
	.weak	_ZSt6islessdd
	.type	_ZSt6islessdd, @function
_ZSt6islessdd:
.LFB129:
	.cfi_startproc
	pushq	%rbp
	.cfi_def_cfa_offset 16
	.cfi_offset 6, -16
	movq	%rsp, %rbp
	.cfi_def_cfa_register 6
	movsd	%xmm0, -8(%rbp)
	movsd	%xmm1, -16(%rbp)
	movsd	-16(%rbp), %xmm0
	ucomisd	-8(%rbp), %xmm0
	setbe	%al
	xorl	$1, %eax
	movzbl	%al, %eax
	testl	%eax, %eax
	setne	%al
	popq	%rbp
	.cfi_def_cfa 7, 8
	ret
	.cfi_endproc
.LFE129:
	.size	_ZSt6islessdd, .-_ZSt6islessdd
	.text
	.globl	main
	.type	main, @function
main:
.LFB246:
	.cfi_startproc
	pushq	%rbp
	.cfi_def_cfa_offset 16
	.cfi_offset 6, -16
	movq	%rsp, %rbp
	.cfi_def_cfa_register 6
	subq	$80, %rsp
	movsd	-24(%rbp), %xmm0
	movq	-16(%rbp), %rax
	movapd	%xmm0, %xmm1
	movq	%rax, %xmm0
	call	fdim@PLT
	movq	%xmm0, %rax
	movq	%rax, -32(%rbp)
	movq	-8(%rbp), %rax
	movq	%rax, %xmm0
	call	log10@PLT
	movsd	%xmm0, -72(%rbp)
	movsd	-32(%rbp), %xmm0
	movq	-40(%rbp), %rax
	movapd	%xmm0, %xmm1
	movq	%rax, %xmm0
	call	atan2@PLT
	mulsd	-72(%rbp), %xmm0
	movsd	%xmm0, -24(%rbp)
	movq	-16(%rbp), %rax
	movq	%rax, %xmm0
	call	atan@PLT
	movq	%xmm0, %rax
	movq	%rax, -40(%rbp)
.L7:
	movsd	-48(%rbp), %xmm0
	movq	-16(%rbp), %rax
	movapd	%xmm0, %xmm1
	movq	%rax, %xmm0
	call	_ZSt6islessdd
	testb	%al, %al
	je	.L6
	movsd	-48(%rbp), %xmm0
	movq	-56(%rbp), %rax
	movapd	%xmm0, %xmm1
	movq	%rax, %xmm0
	call	fdim@PLT
	movq	%xmm0, %rax
	movq	%rax, -64(%rbp)
	movq	-64(%rbp), %rax
	movq	%rax, %xmm0
	call	log10@PLT
	movq	%xmm0, %rax
	movsd	-32(%rbp), %xmm1
	movq	%rax, %xmm0
	divsd	%xmm1, %xmm0
	movsd	%xmm0, -8(%rbp)
	movsd	-8(%rbp), %xmm0
	movq	-32(%rbp), %rax
	movapd	%xmm0, %xmm1
	movq	%rax, %xmm0
	call	fmin@PLT
	movsd	%xmm0, -72(%rbp)
	movsd	-24(%rbp), %xmm0
	movq	-40(%rbp), %rax
	movapd	%xmm0, %xmm1
	movq	%rax, %xmm0
	call	pow@PLT
	addsd	-72(%rbp), %xmm0
	movsd	%xmm0, -8(%rbp)
	jmp	.L7
.L6:
	movsd	-32(%rbp), %xmm0
	movq	-32(%rbp), %rax
	movapd	%xmm0, %xmm1
	movq	%rax, %xmm0
	call	_ZSt14isgreaterequaldd
	testb	%al, %al
	je	.L8
	movsd	-8(%rbp), %xmm0
	movq	-48(%rbp), %rax
	movapd	%xmm0, %xmm1
	movq	%rax, %xmm0
	call	fmax@PLT
	movq	%xmm0, %rax
	movq	%rax, -16(%rbp)
	movq	-32(%rbp), %rax
	movq	%rax, %xmm0
	call	log@PLT
	movq	%xmm0, %rax
	movq	%rax, -48(%rbp)
	movsd	-48(%rbp), %xmm0
	movq	-16(%rbp), %rax
	movapd	%xmm0, %xmm1
	movq	%rax, %xmm0
	call	fdim@PLT
	movsd	%xmm0, -72(%rbp)
	movsd	-56(%rbp), %xmm0
	movq	-48(%rbp), %rax
	movapd	%xmm0, %xmm1
	movq	%rax, %xmm0
	call	fmax@PLT
	mulsd	-72(%rbp), %xmm0
	movsd	%xmm0, -24(%rbp)
	movsd	-16(%rbp), %xmm0
	movq	-24(%rbp), %rax
	movapd	%xmm0, %xmm1
	movq	%rax, %xmm0
	call	fmin@PLT
	movq	%xmm0, %rax
	movq	%rax, -64(%rbp)
.L8:
	movl	$0, %eax
	leave
	.cfi_def_cfa 7, 8
	ret
	.cfi_endproc
.LFE246:
	.size	main, .-main
	.ident	"GCC: (Debian 10.2.1-6) 10.2.1 20210110"
	.section	.note.GNU-stack,"",@progbits
