	.file	"rd_7334.cc"
	.text
	.section	.text._ZSt11islessequaldd,"axG",@progbits,_ZSt11islessequaldd,comdat
	.weak	_ZSt11islessequaldd
	.type	_ZSt11islessequaldd, @function
_ZSt11islessequaldd:
.LFB133:
	.cfi_startproc
	pushq	%rbp
	.cfi_def_cfa_offset 16
	.cfi_offset 6, -16
	movq	%rsp, %rbp
	.cfi_def_cfa_register 6
	movsd	%xmm0, -8(%rbp)
	movsd	%xmm1, -16(%rbp)
	movsd	-16(%rbp), %xmm0
	ucomisd	-8(%rbp), %xmm0
	setb	%al
	xorl	$1, %eax
	movzbl	%al, %eax
	testl	%eax, %eax
	setne	%al
	popq	%rbp
	.cfi_def_cfa 7, 8
	ret
	.cfi_endproc
.LFE133:
	.size	_ZSt11islessequaldd, .-_ZSt11islessequaldd
	.section	.text._ZSt13islessgreaterdd,"axG",@progbits,_ZSt13islessgreaterdd,comdat
	.weak	_ZSt13islessgreaterdd
	.type	_ZSt13islessgreaterdd, @function
_ZSt13islessgreaterdd:
.LFB137:
	.cfi_startproc
	pushq	%rbp
	.cfi_def_cfa_offset 16
	.cfi_offset 6, -16
	movq	%rsp, %rbp
	.cfi_def_cfa_register 6
	movsd	%xmm0, -8(%rbp)
	movsd	%xmm1, -16(%rbp)
	movsd	-8(%rbp), %xmm0
	ucomisd	-16(%rbp), %xmm0
	sete	%al
	xorl	$1, %eax
	movzbl	%al, %eax
	testl	%eax, %eax
	setne	%al
	popq	%rbp
	.cfi_def_cfa 7, 8
	ret
	.cfi_endproc
.LFE137:
	.size	_ZSt13islessgreaterdd, .-_ZSt13islessgreaterdd
	.text
	.globl	main
	.type	main, @function
main:
.LFB246:
	.cfi_startproc
	pushq	%rbp
	.cfi_def_cfa_offset 16
	.cfi_offset 6, -16
	movq	%rsp, %rbp
	.cfi_def_cfa_register 6
	pushq	%rbx
	subq	$56, %rsp
	.cfi_offset 3, -24
	movsd	-40(%rbp), %xmm0
	movq	-24(%rbp), %rax
	movapd	%xmm0, %xmm1
	movq	%rax, %xmm0
	call	fdim@PLT
	movq	%xmm0, %rax
	movq	%rax, -32(%rbp)
	movsd	-40(%rbp), %xmm0
	movsd	%xmm0, -48(%rbp)
.L7:
	movsd	-32(%rbp), %xmm0
	movq	-32(%rbp), %rax
	movapd	%xmm0, %xmm1
	movq	%rax, %xmm0
	call	_ZSt13islessgreaterdd
	testb	%al, %al
	je	.L6
	movsd	-56(%rbp), %xmm0
	movq	-48(%rbp), %rax
	movapd	%xmm0, %xmm1
	movq	%rax, %xmm0
	call	fmin@PLT
	movq	%xmm0, %rbx
	movsd	-56(%rbp), %xmm0
	movq	-56(%rbp), %rax
	movapd	%xmm0, %xmm1
	movq	%rax, %xmm0
	call	pow@PLT
	movapd	%xmm0, %xmm1
	movq	%rbx, %xmm0
	divsd	%xmm1, %xmm0
	movsd	%xmm0, -24(%rbp)
	movq	-48(%rbp), %rax
	movq	%rax, %xmm0
	call	atan@PLT
	movq	%xmm0, %rax
	movq	%rax, -32(%rbp)
	movq	-56(%rbp), %rax
	movq	%rax, %xmm0
	call	floor@PLT
	movq	%xmm0, %rax
	movq	%rax, -40(%rbp)
	jmp	.L7
.L6:
	movsd	-32(%rbp), %xmm0
	movq	-32(%rbp), %rax
	movapd	%xmm0, %xmm1
	movq	%rax, %xmm0
	call	_ZSt11islessequaldd
	testb	%al, %al
	je	.L8
	movsd	-56(%rbp), %xmm0
	movq	-32(%rbp), %rax
	movapd	%xmm0, %xmm1
	movq	%rax, %xmm0
	call	atan2@PLT
	movq	%xmm0, %rax
	movq	%rax, -48(%rbp)
	movq	-24(%rbp), %rax
	movq	%rax, %xmm0
	call	log10@PLT
	movq	%xmm0, %rax
	movq	%rax, -24(%rbp)
	movsd	-24(%rbp), %xmm0
	movq	-32(%rbp), %rax
	movapd	%xmm0, %xmm1
	movq	%rax, %xmm0
	call	fmin@PLT
	movq	%xmm0, %rbx
	movq	-32(%rbp), %rax
	movq	%rax, %xmm0
	call	atan@PLT
	movapd	%xmm0, %xmm1
	movq	%rbx, %xmm0
	divsd	%xmm1, %xmm0
	movsd	%xmm0, -32(%rbp)
	jmp	.L6
.L8:
	movl	$0, %eax
	movq	-8(%rbp), %rbx
	leave
	.cfi_def_cfa 7, 8
	ret
	.cfi_endproc
.LFE246:
	.size	main, .-main
	.ident	"GCC: (Debian 10.2.1-6) 10.2.1 20210110"
	.section	.note.GNU-stack,"",@progbits
